target datalayout = "e-m:e-p270:32:32-p271:32:32-p272:64:64-i64:64-i128:128-f80:128-n8:16:32:64-S128"
target triple = "x86_64-pc-linux-gnu"

%struct.__loadu_ps = type { <4 x float> }
%struct.__storeu_ps = type { <4 x float> }
%struct.stbir__contributors = type { i32, i32 }
%struct.__mm_storel_epi64_struct = type { i64 }
%struct.__mm_load_ss_struct = type { float }
%struct.__mm_store_ss_struct = type { float }

; Function Attrs: alwaysinline nounwind uwtable
define available_externally void @_mm_store_ss(ptr noundef %0, <4 x float> noundef %1) #2 {
  %3 = alloca ptr, align 8
  %4 = alloca <4 x float>, align 16
  store ptr %0, ptr %3, align 8, !tbaa !21
  store <4 x float> %1, ptr %4, align 16, !tbaa !12
  %5 = load <4 x float>, ptr %4, align 16, !tbaa !12
  %6 = extractelement <4 x float> %5, i32 0
  %7 = load ptr, ptr %3, align 8, !tbaa !21
  %8 = getelementptr inbounds nuw %struct.__mm_store_ss_struct, ptr %7, i32 0, i32 0
  store float %6, ptr %8, align 1, !tbaa !12
  ret void
}

; Function Attrs: alwaysinline nounwind uwtable
define available_externally void @_mm_storel_epi64(ptr noundef %0, <2 x i64> noundef %1) #2 {
  %3 = alloca ptr, align 8
  %4 = alloca <2 x i64>, align 16
  store ptr %0, ptr %3, align 8, !tbaa !3
  store <2 x i64> %1, ptr %4, align 16, !tbaa !12
  %5 = load <2 x i64>, ptr %4, align 16, !tbaa !12
  %6 = extractelement <2 x i64> %5, i32 0
  %7 = load ptr, ptr %3, align 8, !tbaa !3
  %8 = getelementptr inbounds nuw %struct.__mm_storel_epi64_struct, ptr %7, i32 0, i32 0
  store i64 %6, ptr %8, align 1, !tbaa !12
  ret void
}

; Function Attrs: alwaysinline nounwind uwtable
define available_externally void @_mm_storeu_ps(ptr noundef %0, <4 x float> noundef %1) #2 {
  %3 = alloca ptr, align 8
  %4 = alloca <4 x float>, align 16
  store ptr %0, ptr %3, align 8, !tbaa !21
  store <4 x float> %1, ptr %4, align 16, !tbaa !12
  %5 = load <4 x float>, ptr %4, align 16, !tbaa !12
  %6 = load ptr, ptr %3, align 8, !tbaa !21
  %7 = getelementptr inbounds nuw %struct.__storeu_ps, ptr %6, i32 0, i32 0
  store <4 x float> %5, ptr %7, align 1, !tbaa !12
  ret void
}

; Function Attrs: alwaysinline nounwind uwtable
define available_externally <4 x float> @_mm_add_ps(<4 x float> noundef %0, <4 x float> noundef %1) #2 {
  %3 = alloca <4 x float>, align 16
  %4 = alloca <4 x float>, align 16
  store <4 x float> %0, ptr %3, align 16, !tbaa !12
  store <4 x float> %1, ptr %4, align 16, !tbaa !12
  %5 = load <4 x float>, ptr %3, align 16, !tbaa !12
  %6 = load <4 x float>, ptr %4, align 16, !tbaa !12
  %7 = fadd <4 x float> %5, %6
  ret <4 x float> %7
}

; Function Attrs: alwaysinline nounwind uwtable
define available_externally <4 x float> @_mm_load_ss(ptr noundef %0) #2 {
  %2 = alloca ptr, align 8
  %3 = alloca float, align 4
  %4 = alloca <4 x float>, align 16
  store ptr %0, ptr %2, align 8, !tbaa !21
  call void @llvm.lifetime.start.p0(i64 4, ptr %3) #12
  %5 = load ptr, ptr %2, align 8, !tbaa !21
  %6 = getelementptr inbounds nuw %struct.__mm_load_ss_struct, ptr %5, i32 0, i32 0
  %7 = load float, ptr %6, align 1, !tbaa !12
  store float %7, ptr %3, align 4, !tbaa !29
  %8 = load float, ptr %3, align 4, !tbaa !29
  %9 = insertelement <4 x float> poison, float %8, i32 0
  %10 = insertelement <4 x float> %9, float 0.000000e+00, i32 1
  %11 = insertelement <4 x float> %10, float 0.000000e+00, i32 2
  %12 = insertelement <4 x float> %11, float 0.000000e+00, i32 3
  store <4 x float> %12, ptr %4, align 16, !tbaa !12
  %13 = load <4 x float>, ptr %4, align 16, !tbaa !12
  call void @llvm.lifetime.end.p0(i64 4, ptr %3) #12
  ret <4 x float> %13
}

; Function Attrs: alwaysinline nounwind uwtable
define available_externally <4 x float> @_mm_mul_ps(<4 x float> noundef %0, <4 x float> noundef %1) #2 {
  %3 = alloca <4 x float>, align 16
  %4 = alloca <4 x float>, align 16
  store <4 x float> %0, ptr %3, align 16, !tbaa !12
  store <4 x float> %1, ptr %4, align 16, !tbaa !12
  %5 = load <4 x float>, ptr %3, align 16, !tbaa !12
  %6 = load <4 x float>, ptr %4, align 16, !tbaa !12
  %7 = fmul <4 x float> %5, %6
  ret <4 x float> %7
}

; Function Attrs: alwaysinline nounwind uwtable
define available_externally <4 x float> @_mm_castsi128_ps(<2 x i64> noundef %0) #2 {
  %2 = alloca <2 x i64>, align 16
  store <2 x i64> %0, ptr %2, align 16, !tbaa !12
  %3 = load <2 x i64>, ptr %2, align 16, !tbaa !12
  %4 = bitcast <2 x i64> %3 to <4 x float>
  ret <4 x float> %4
}

; Function Attrs: alwaysinline nounwind uwtable
define available_externally <2 x i64> @_mm_castps_si128(<4 x float> noundef %0) #2 {
  %2 = alloca <4 x float>, align 16
  store <4 x float> %0, ptr %2, align 16, !tbaa !12
  %3 = load <4 x float>, ptr %2, align 16, !tbaa !12
  %4 = bitcast <4 x float> %3 to <2 x i64>
  ret <2 x i64> %4
}

; Function Attrs: alwaysinline nounwind uwtable
define available_externally <4 x float> @_mm_loadu_ps(ptr noundef %0) #2 {
  %2 = alloca ptr, align 8
  store ptr %0, ptr %2, align 8, !tbaa !21
  %3 = load ptr, ptr %2, align 8, !tbaa !21
  %4 = getelementptr inbounds nuw %struct.__loadu_ps, ptr %3, i32 0, i32 0
  %5 = load <4 x float>, ptr %4, align 1, !tbaa !12
  ret <4 x float> %5
}

; Function Attrs: nounwind uwtable
define void @stbir__horizontal_gather_3_channels_with_5_coeffs(ptr noundef %0, i32 noundef %1, ptr noundef %2, ptr noundef %3, ptr noundef %4, i32 noundef %5) #0 {
  %7 = alloca ptr, align 8
  %8 = alloca i32, align 4
  %9 = alloca ptr, align 8
  %10 = alloca ptr, align 8
  %11 = alloca ptr, align 8
  %12 = alloca i32, align 4
  %13 = alloca ptr, align 8
  %14 = alloca ptr, align 8
  %15 = alloca ptr, align 8
  %16 = alloca ptr, align 8
  %17 = alloca <4 x float>, align 16
  %18 = alloca <4 x float>, align 16
  %19 = alloca <4 x float>, align 16
  %20 = alloca <4 x float>, align 16
  %21 = alloca <4 x float>, align 16
  %22 = alloca i32, align 4
  store ptr %0, ptr %7, align 8, !tbaa !21
  store i32 %1, ptr %8, align 4, !tbaa !26
  store ptr %2, ptr %9, align 8, !tbaa !21
  store ptr %3, ptr %10, align 8, !tbaa !3
  store ptr %4, ptr %11, align 8, !tbaa !21
  store i32 %5, ptr %12, align 4, !tbaa !26
  call void @llvm.lifetime.start.p0(i64 8, ptr %13) #12
  %23 = load ptr, ptr %7, align 8, !tbaa !21
  %24 = load i32, ptr %8, align 4, !tbaa !26
  %25 = mul i32 %24, 3
  %26 = zext i32 %25 to i64
  %27 = getelementptr inbounds nuw float, ptr %23, i64 %26
  store ptr %27, ptr %13, align 8, !tbaa !21
  call void @llvm.lifetime.start.p0(i64 8, ptr %14) #12
  %28 = load ptr, ptr %7, align 8, !tbaa !21
  store ptr %28, ptr %14, align 8, !tbaa !21
  br label %29

29:                                               ; preds = %153, %6
  call void @llvm.lifetime.start.p0(i64 8, ptr %15) #12
  %30 = load ptr, ptr %9, align 8, !tbaa !21
  %31 = load ptr, ptr %10, align 8, !tbaa !3
  %32 = getelementptr inbounds nuw %struct.stbir__contributors, ptr %31, i32 0, i32 0
  %33 = load i32, ptr %32, align 4, !tbaa !41
  %34 = mul nsw i32 %33, 3
  %35 = sext i32 %34 to i64
  %36 = getelementptr inbounds float, ptr %30, i64 %35
  store ptr %36, ptr %15, align 8, !tbaa !21
  call void @llvm.lifetime.start.p0(i64 8, ptr %16) #12
  %37 = load ptr, ptr %11, align 8, !tbaa !21
  store ptr %37, ptr %16, align 8, !tbaa !21
  call void @llvm.lifetime.start.p0(i64 16, ptr %17) #12
  call void @llvm.lifetime.start.p0(i64 16, ptr %18) #12
  call void @llvm.lifetime.start.p0(i64 16, ptr %19) #12
  call void @llvm.lifetime.start.p0(i64 16, ptr %20) #12
  call void @llvm.lifetime.start.p0(i64 16, ptr %21) #12
  %38 = load ptr, ptr %15, align 8, !tbaa !21
  call void asm sideeffect "", "r,~{dirflag},~{fpsr},~{flags}"(ptr %38) #12, !srcloc !639
  %39 = load ptr, ptr %16, align 8, !tbaa !21
  %40 = call <4 x float> @_mm_loadu_ps(ptr noundef %39)
  store <4 x float> %40, ptr %21, align 16, !tbaa !12
  %41 = load <4 x float>, ptr %21, align 16, !tbaa !12
  %42 = call <2 x i64> @_mm_castps_si128(<4 x float> noundef %41)
  %43 = bitcast <2 x i64> %42 to <4 x i32>
  %44 = shufflevector <4 x i32> %43, <4 x i32> poison, <4 x i32> <i32 0, i32 0, i32 0, i32 1>
  %45 = bitcast <4 x i32> %44 to <2 x i64>
  %46 = call <4 x float> @_mm_castsi128_ps(<2 x i64> noundef %45)
  store <4 x float> %46, ptr %20, align 16, !tbaa !12
  %47 = load <4 x float>, ptr %20, align 16, !tbaa !12
  %48 = load ptr, ptr %15, align 8, !tbaa !21
  %49 = call <4 x float> @_mm_loadu_ps(ptr noundef %48)
  %50 = call <4 x float> @_mm_mul_ps(<4 x float> noundef %47, <4 x float> noundef %49)
  store <4 x float> %50, ptr %17, align 16, !tbaa !12
  %51 = load <4 x float>, ptr %21, align 16, !tbaa !12
  %52 = call <2 x i64> @_mm_castps_si128(<4 x float> noundef %51)
  %53 = bitcast <2 x i64> %52 to <4 x i32>
  %54 = shufflevector <4 x i32> %53, <4 x i32> poison, <4 x i32> <i32 1, i32 1, i32 2, i32 2>
  %55 = bitcast <4 x i32> %54 to <2 x i64>
  %56 = call <4 x float> @_mm_castsi128_ps(<2 x i64> noundef %55)
  store <4 x float> %56, ptr %20, align 16, !tbaa !12
  %57 = load <4 x float>, ptr %20, align 16, !tbaa !12
  %58 = load ptr, ptr %15, align 8, !tbaa !21
  %59 = getelementptr inbounds float, ptr %58, i64 4
  %60 = call <4 x float> @_mm_loadu_ps(ptr noundef %59)
  %61 = call <4 x float> @_mm_mul_ps(<4 x float> noundef %57, <4 x float> noundef %60)
  store <4 x float> %61, ptr %18, align 16, !tbaa !12
  %62 = load <4 x float>, ptr %21, align 16, !tbaa !12
  %63 = call <2 x i64> @_mm_castps_si128(<4 x float> noundef %62)
  %64 = bitcast <2 x i64> %63 to <4 x i32>
  %65 = shufflevector <4 x i32> %64, <4 x i32> poison, <4 x i32> <i32 2, i32 3, i32 3, i32 3>
  %66 = bitcast <4 x i32> %65 to <2 x i64>
  %67 = call <4 x float> @_mm_castsi128_ps(<2 x i64> noundef %66)
  store <4 x float> %67, ptr %20, align 16, !tbaa !12
  %68 = load <4 x float>, ptr %20, align 16, !tbaa !12
  %69 = load ptr, ptr %15, align 8, !tbaa !21
  %70 = getelementptr inbounds float, ptr %69, i64 8
  %71 = call <4 x float> @_mm_loadu_ps(ptr noundef %70)
  %72 = call <4 x float> @_mm_mul_ps(<4 x float> noundef %68, <4 x float> noundef %71)
  store <4 x float> %72, ptr %19, align 16, !tbaa !12
  %73 = load ptr, ptr %15, align 8, !tbaa !21
  call void asm sideeffect "", "r,~{dirflag},~{fpsr},~{flags}"(ptr %73) #12, !srcloc !640
  %74 = load ptr, ptr %16, align 8, !tbaa !21
  %75 = getelementptr inbounds float, ptr %74, i64 4
  %76 = call <4 x float> @_mm_load_ss(ptr noundef %75)
  store <4 x float> %76, ptr %20, align 16, !tbaa !12
  %77 = load <4 x float>, ptr %20, align 16, !tbaa !12
  %78 = call <2 x i64> @_mm_castps_si128(<4 x float> noundef %77)
  %79 = bitcast <2 x i64> %78 to <4 x i32>
  %80 = shufflevector <4 x i32> %79, <4 x i32> poison, <4 x i32> <i32 0, i32 0, i32 0, i32 1>
  %81 = bitcast <4 x i32> %80 to <2 x i64>
  %82 = call <4 x float> @_mm_castsi128_ps(<2 x i64> noundef %81)
  store <4 x float> %82, ptr %20, align 16, !tbaa !12
  %83 = load <4 x float>, ptr %17, align 16, !tbaa !12
  %84 = load <4 x float>, ptr %20, align 16, !tbaa !12
  %85 = load ptr, ptr %15, align 8, !tbaa !21
  %86 = getelementptr inbounds float, ptr %85, i64 12
  %87 = call <4 x float> @_mm_loadu_ps(ptr noundef %86)
  %88 = call <4 x float> @_mm_mul_ps(<4 x float> noundef %84, <4 x float> noundef %87)
  %89 = call <4 x float> @_mm_add_ps(<4 x float> noundef %83, <4 x float> noundef %88)
  store <4 x float> %89, ptr %17, align 16, !tbaa !12
  %90 = load <4 x float>, ptr %18, align 16, !tbaa !12
  %91 = load <4 x float>, ptr %17, align 16, !tbaa !12
  %92 = shufflevector <4 x float> %90, <4 x float> %91, <4 x i32> <i32 0, i32 1, i32 6, i32 7>
  %93 = call <2 x i64> @_mm_castps_si128(<4 x float> noundef %92)
  %94 = bitcast <2 x i64> %93 to <4 x i32>
  %95 = shufflevector <4 x i32> %94, <4 x i32> poison, <4 x i32> <i32 3, i32 0, i32 1, i32 2>
  %96 = bitcast <4 x i32> %95 to <2 x i64>
  %97 = call <4 x float> @_mm_castsi128_ps(<2 x i64> noundef %96)
  store <4 x float> %97, ptr %20, align 16, !tbaa !12
  %98 = load <4 x float>, ptr %19, align 16, !tbaa !12
  %99 = load <4 x float>, ptr %18, align 16, !tbaa !12
  %100 = shufflevector <4 x float> %98, <4 x float> %99, <4 x i32> <i32 0, i32 1, i32 6, i32 7>
  %101 = call <2 x i64> @_mm_castps_si128(<4 x float> noundef %100)
  %102 = bitcast <2 x i64> %101 to <4 x i32>
  %103 = shufflevector <4 x i32> %102, <4 x i32> poison, <4 x i32> <i32 2, i32 3, i32 0, i32 1>
  %104 = bitcast <4 x i32> %103 to <2 x i64>
  %105 = call <4 x float> @_mm_castsi128_ps(<2 x i64> noundef %104)
  store <4 x float> %105, ptr %21, align 16, !tbaa !12
  %106 = load <4 x float>, ptr %19, align 16, !tbaa !12
  %107 = call <2 x i64> @_mm_castps_si128(<4 x float> noundef %106)
  %108 = bitcast <2 x i64> %107 to <4 x i32>
  %109 = shufflevector <4 x i32> %108, <4 x i32> poison, <4 x i32> <i32 1, i32 2, i32 3, i32 0>
  %110 = bitcast <4 x i32> %109 to <2 x i64>
  %111 = call <4 x float> @_mm_castsi128_ps(<2 x i64> noundef %110)
  store <4 x float> %111, ptr %19, align 16, !tbaa !12
  %112 = load <4 x float>, ptr %17, align 16, !tbaa !12
  %113 = load <4 x float>, ptr %21, align 16, !tbaa !12
  %114 = call <4 x float> @_mm_add_ps(<4 x float> noundef %112, <4 x float> noundef %113)
  store <4 x float> %114, ptr %17, align 16, !tbaa !12
  %115 = load <4 x float>, ptr %20, align 16, !tbaa !12
  %116 = load <4 x float>, ptr %19, align 16, !tbaa !12
  %117 = call <4 x float> @_mm_add_ps(<4 x float> noundef %115, <4 x float> noundef %116)
  store <4 x float> %117, ptr %20, align 16, !tbaa !12
  %118 = load <4 x float>, ptr %17, align 16, !tbaa !12
  %119 = load <4 x float>, ptr %20, align 16, !tbaa !12
  %120 = call <4 x float> @_mm_add_ps(<4 x float> noundef %118, <4 x float> noundef %119)
  store <4 x float> %120, ptr %17, align 16, !tbaa !12
  %121 = load i32, ptr %12, align 4, !tbaa !26
  %122 = load ptr, ptr %11, align 8, !tbaa !21
  %123 = sext i32 %121 to i64
  %124 = getelementptr inbounds float, ptr %122, i64 %123
  store ptr %124, ptr %11, align 8, !tbaa !21
  %125 = load ptr, ptr %10, align 8, !tbaa !3
  %126 = getelementptr inbounds nuw %struct.stbir__contributors, ptr %125, i32 1
  store ptr %126, ptr %10, align 8, !tbaa !3
  %127 = load ptr, ptr %14, align 8, !tbaa !21
  %128 = getelementptr inbounds float, ptr %127, i64 3
  store ptr %128, ptr %14, align 8, !tbaa !21
  %129 = load ptr, ptr %14, align 8, !tbaa !21
  %130 = load ptr, ptr %13, align 8, !tbaa !21
  %131 = icmp ult ptr %129, %130
  br i1 %131, label %132, label %136

132:                                              ; preds = %29
  %133 = load ptr, ptr %14, align 8, !tbaa !21
  %134 = getelementptr inbounds float, ptr %133, i64 -3
  %135 = load <4 x float>, ptr %17, align 16, !tbaa !12
  call void @_mm_storeu_ps(ptr noundef %134, <4 x float> noundef %135)
  store i32 3, ptr %22, align 4
  br label %151

136:                                              ; preds = %29
  %137 = load <4 x float>, ptr %17, align 16, !tbaa !12
  %138 = call <2 x i64> @_mm_castps_si128(<4 x float> noundef %137)
  %139 = bitcast <2 x i64> %138 to <4 x i32>
  %140 = shufflevector <4 x i32> %139, <4 x i32> poison, <4 x i32> <i32 2, i32 3, i32 0, i32 1>
  %141 = bitcast <4 x i32> %140 to <2 x i64>
  %142 = call <4 x float> @_mm_castsi128_ps(<2 x i64> noundef %141)
  store <4 x float> %142, ptr %18, align 16, !tbaa !12
  %143 = load ptr, ptr %14, align 8, !tbaa !21
  %144 = getelementptr inbounds float, ptr %143, i64 -3
  %145 = load <4 x float>, ptr %17, align 16, !tbaa !12
  %146 = call <2 x i64> @_mm_castps_si128(<4 x float> noundef %145)
  call void @_mm_storel_epi64(ptr noundef %144, <2 x i64> noundef %146)
  %147 = load ptr, ptr %14, align 8, !tbaa !21
  %148 = getelementptr inbounds float, ptr %147, i64 2
  %149 = getelementptr inbounds float, ptr %148, i64 -3
  %150 = load <4 x float>, ptr %18, align 16, !tbaa !12
  call void @_mm_store_ss(ptr noundef %149, <4 x float> noundef %150)
  store i32 2, ptr %22, align 4
  br label %151

151:                                              ; preds = %136, %132
  call void @llvm.lifetime.end.p0(i64 16, ptr %21) #12
  call void @llvm.lifetime.end.p0(i64 16, ptr %20) #12
  call void @llvm.lifetime.end.p0(i64 16, ptr %19) #12
  call void @llvm.lifetime.end.p0(i64 16, ptr %18) #12
  call void @llvm.lifetime.end.p0(i64 16, ptr %17) #12
  call void @llvm.lifetime.end.p0(i64 8, ptr %16) #12
  call void @llvm.lifetime.end.p0(i64 8, ptr %15) #12
  %152 = load i32, ptr %22, align 4
  switch i32 %152, label %158 [
    i32 3, label %153
    i32 2, label %157
  ]

153:                                              ; preds = %151
  %154 = load ptr, ptr %14, align 8, !tbaa !21
  %155 = load ptr, ptr %13, align 8, !tbaa !21
  %156 = icmp ult ptr %154, %155
  br i1 %156, label %29, label %157, !llvm.loop !641

157:                                              ; preds = %153, %151
  call void @llvm.lifetime.end.p0(i64 8, ptr %14) #12
  call void @llvm.lifetime.end.p0(i64 8, ptr %13) #12
  ret void

158:                                              ; preds = %151
  unreachable
}