; Function Attrs: nounwind uwtable
define void @stbir__horizontal_gather_3_channels_with_5_coeffs(ptr noundef writeonly captures(address) %0, i32 noundef %1, ptr noundef %2, ptr noundef readonly captures(none) %3, ptr noundef readonly captures(none) %4, i32 noundef %5) #0 {
  %7 = mul i32 %1, 3
  %8 = zext i32 %7 to i64
  %9 = getelementptr inbounds nuw float, ptr %0, i64 %8
  %10 = sext i32 %5 to i64
  br label %11

11:                                               ; preds = %48, %6
  %.051 = phi ptr [ %0, %6 ], [ %42, %48 ]
  %.050 = phi ptr [ %4, %6 ], [ %50, %48 ]
  %.049 = phi ptr [ %3, %6 ], [ %49, %48 ]
  %12 = load i32, ptr %.049, align 4, !tbaa !34
  %13 = mul nsw i32 %12, 3
  %14 = sext i32 %13 to i64
  %15 = getelementptr inbounds float, ptr %2, i64 %14
  tail call void asm sideeffect "", "r,~{dirflag},~{fpsr},~{flags}"(ptr %15) #24, !srcloc !562
  %16 = load <4 x float>, ptr %.050, align 1, !tbaa !4
  %17 = shufflevector <4 x float> %16, <4 x float> poison, <4 x i32> <i32 0, i32 0, i32 0, i32 1>
  %18 = load <4 x float>, ptr %15, align 1, !tbaa !4
  %19 = fmul <4 x float> %18, %17
  %20 = shufflevector <4 x float> %16, <4 x float> poison, <4 x i32> <i32 1, i32 1, i32 2, i32 2>
  %21 = getelementptr inbounds nuw i8, ptr %15, i64 16
  %22 = load <4 x float>, ptr %21, align 1, !tbaa !4
  %23 = fmul <4 x float> %20, %22
  %24 = shufflevector <4 x float> %16, <4 x float> poison, <4 x i32> <i32 2, i32 3, i32 3, i32 3>
  %25 = getelementptr inbounds nuw i8, ptr %15, i64 32
  %26 = load <4 x float>, ptr %25, align 1, !tbaa !4
  %27 = fmul <4 x float> %24, %26
  tail call void asm sideeffect "", "r,~{dirflag},~{fpsr},~{flags}"(ptr nonnull %15) #24, !srcloc !563
  %28 = getelementptr inbounds nuw i8, ptr %.050, i64 16
  %29 = load float, ptr %28, align 1, !tbaa !4
  %30 = insertelement <4 x float> <float poison, float 0.000000e+00, float poison, float poison>, float %29, i64 0
  %31 = shufflevector <4 x float> %30, <4 x float> poison, <4 x i32> <i32 0, i32 0, i32 0, i32 1>
  %32 = getelementptr inbounds nuw i8, ptr %15, i64 48
  %33 = load <4 x float>, ptr %32, align 1, !tbaa !4
  %34 = fmul <4 x float> %33, %31
  %35 = fadd <4 x float> %19, %34
  %36 = shufflevector <4 x float> %35, <4 x float> %23, <4 x i32> <i32 3, i32 4, i32 5, i32 2>
  %37 = shufflevector <4 x float> %23, <4 x float> %27, <4 x i32> <i32 2, i32 3, i32 4, i32 5>
  %38 = shufflevector <4 x float> %27, <4 x float> poison, <4 x i32> <i32 1, i32 2, i32 3, i32 0>
  %39 = fadd <4 x float> %37, %35
  %40 = fadd <4 x float> %38, %36
  %41 = fadd <4 x float> %39, %40
  %42 = getelementptr inbounds nuw i8, ptr %.051, i64 12
  %43 = icmp ult ptr %42, %9
  br i1 %43, label %48, label %.thread

.thread:                                          ; preds = %11
  %44 = bitcast <4 x float> %41 to <2 x i64>
  %45 = extractelement <2 x i64> %44, i64 0
  store i64 %45, ptr %.051, align 1, !tbaa !4
  %46 = getelementptr inbounds nuw i8, ptr %.051, i64 8
  %47 = extractelement <4 x float> %41, i64 2
  store float %47, ptr %46, align 1, !tbaa !4
  ret void

48:                                               ; preds = %11
  %49 = getelementptr inbounds nuw i8, ptr %.049, i64 8
  %50 = getelementptr inbounds float, ptr %.050, i64 %10
  store <4 x float> %41, ptr %.051, align 1, !tbaa !4
  br label %11
}